target datalayout = "e-m:e-p270:32:32-p271:32:32-p272:64:64-i64:64-i128:128-f80:128-n8:16:32:64-S128"
target triple = "x86_64-pc-linux-gnu"

; Function Attrs: cold nounwind optsize uwtable
define void @av_tx_uninit(ptr noundef %0) #7 {
  %2 = alloca ptr, align 8
  store ptr %0, ptr %2, align 8, !tbaa !54
  %3 = load ptr, ptr %2, align 8, !tbaa !54
  %4 = load ptr, ptr %3, align 8, !tbaa !4
  %5 = icmp ne ptr %4, null
  br i1 %5, label %7, label %6

6:                                                ; preds = %1
  br label %11

7:                                                ; preds = %1
  %8 = load ptr, ptr %2, align 8, !tbaa !54
  %9 = load ptr, ptr %8, align 8, !tbaa !4
  call void @reset_ctx(ptr noundef %9, i32 noundef 1)
  %10 = load ptr, ptr %2, align 8, !tbaa !54
  call void @av_freep(ptr noundef %10)
  br label %11

11:                                               ; preds = %7, %6
  ret void
}