; Function Attrs: cold nounwind optsize uwtable
define void @av_tx_uninit(ptr noundef %0) local_unnamed_addr #7 {
  %2 = load ptr, ptr %0, align 8, !tbaa !50
  %.not = icmp eq ptr %2, null
  br i1 %.not, label %4, label %3

3:                                                ; preds = %1
  tail call fastcc void @reset_ctx(ptr noundef nonnull %2, i32 noundef 1)
  tail call void @av_freep(ptr noundef nonnull %0) #13
  br label %4

4:                                                ; preds = %1, %3
  ret void
}